target datalayout = "e-m:e-p270:32:32-p271:32:32-p272:64:64-i64:64-i128:128-f80:128-n8:16:32:64-S128"
target triple = "x86_64-pc-linux-gnu"

%struct.H5PL_vfd_key_t = type { i32, %union.anon.1 }
%union.anon.1 = type { ptr }
%struct.H5FD_get_driver_ud_t = type { %struct.H5PL_vfd_key_t, i64 }

@H5FD_init_g = external global i8, align 1
@H5_libterm_g = external global i8, align 1
@.str = private unnamed_addr constant [101 x i8] c"generated/home/dtcxzyw/WorkSpace/Projects/compilers/llvm-opt-benchmark/bench/hdf5/hdf5/src/H5FDint.c\00", align 1
@H5E_CANTINIT_g = external global i64, align 8
@H5E_FUNC_g = external global i64, align 8
@.str.6 = private unnamed_addr constant [32 x i8] c"interface initialization failed\00", align 1
@H5E_VFL_g = external global i64, align 8
@H5E_BADITER_g = external global i64, align 8
@.str.43 = private unnamed_addr constant [24 x i8] c"can't iterate over VFDs\00", align 1
@__func__.H5FD_is_driver_registered_by_value = private unnamed_addr constant [35 x i8] c"H5FD_is_driver_registered_by_value\00", align 1

; Function Attrs: nounwind uwtable
define i32 @H5FD_is_driver_registered_by_value(i32 noundef %0, ptr noundef %1) #0 {
  %3 = alloca i32, align 4
  %4 = alloca ptr, align 8
  %5 = alloca %struct.H5FD_get_driver_ud_t, align 8
  %6 = alloca i32, align 4
  %7 = alloca i8, align 1
  store i32 %0, ptr %3, align 4, !tbaa !12
  store ptr %1, ptr %4, align 8, !tbaa !8
  call void @llvm.lifetime.start.p0(i64 24, ptr %5) #8
  call void @llvm.lifetime.start.p0(i64 4, ptr %6) #8
  store i32 0, ptr %6, align 4, !tbaa !12
  call void @llvm.lifetime.start.p0(i64 1, ptr %7) #8
  store i8 0, ptr %7, align 1, !tbaa !14
  %8 = load i8, ptr @H5FD_init_g, align 1, !tbaa !14, !range !16, !noundef !17
  %9 = trunc i8 %8 to i1
  br i1 %9, label %14, label %10

10:                                               ; preds = %2
  %11 = load i8, ptr @H5_libterm_g, align 1, !tbaa !14, !range !16, !noundef !17
  %12 = trunc i8 %11 to i1
  %13 = xor i1 %12, true
  br label %14

14:                                               ; preds = %10, %2
  %15 = phi i1 [ false, %2 ], [ %13, %10 ]
  %16 = xor i1 %15, true
  %17 = xor i1 %16, true
  %18 = zext i1 %17 to i32
  %19 = sext i32 %18 to i64
  %20 = call i64 @llvm.expect.i64(i64 %19, i64 0)
  %21 = icmp ne i64 %20, 0
  br i1 %21, label %22, label %45

22:                                               ; preds = %14
  store i8 1, ptr @H5FD_init_g, align 1, !tbaa !14
  %23 = call i32 @H5FD__init_package()
  %24 = icmp slt i32 %23, 0
  br i1 %24, label %25, label %44

25:                                               ; preds = %22
  store i8 0, ptr @H5FD_init_g, align 1, !tbaa !14
  br label %26

26:                                               ; preds = %25
  br label %27

27:                                               ; preds = %26
  br label %28

28:                                               ; preds = %27
  %29 = load i64, ptr @H5E_FUNC_g, align 8, !tbaa !10
  %30 = load i64, ptr @H5E_CANTINIT_g, align 8, !tbaa !10
  %31 = call i32 (ptr, ptr, i32, i64, i64, ptr, ...) @H5E_printf_stack(ptr noundef @.str, ptr noundef @__func__.H5FD_is_driver_registered_by_value, i32 noundef 3331, i64 noundef %29, i64 noundef %30, ptr noundef @.str.6)
  br label %32

32:                                               ; preds = %28
  br label %33

33:                                               ; preds = %32
  store i8 1, ptr %7, align 1, !tbaa !14
  %34 = load i8, ptr %7, align 1, !tbaa !14, !range !16, !noundef !17
  %35 = trunc i8 %34 to i1
  %36 = zext i1 %35 to i8
  store i8 %36, ptr %7, align 1, !tbaa !14
  br label %37

37:                                               ; preds = %33
  br label %38

38:                                               ; preds = %37
  br label %39

39:                                               ; preds = %38
  store i32 -1, ptr %6, align 4, !tbaa !12
  br label %101

40:                                               ; No predecessors!
  br label %41

41:                                               ; preds = %40
  br label %42

42:                                               ; preds = %41
  br label %43

43:                                               ; preds = %42
  br label %44

44:                                               ; preds = %43, %22
  br label %45

45:                                               ; preds = %44, %14
  %46 = load i8, ptr @H5FD_init_g, align 1, !tbaa !14, !range !16, !noundef !17
  %47 = trunc i8 %46 to i1
  br i1 %47, label %52, label %48

48:                                               ; preds = %45
  %49 = load i8, ptr @H5_libterm_g, align 1, !tbaa !14, !range !16, !noundef !17
  %50 = trunc i8 %49 to i1
  %51 = xor i1 %50, true
  br label %52

52:                                               ; preds = %48, %45
  %53 = phi i1 [ true, %45 ], [ %51, %48 ]
  %54 = xor i1 %53, true
  %55 = xor i1 %54, true
  %56 = zext i1 %55 to i32
  %57 = sext i32 %56 to i64
  %58 = call i64 @llvm.expect.i64(i64 %57, i64 1)
  %59 = icmp ne i64 %58, 0
  br i1 %59, label %60, label %102

60:                                               ; preds = %52
  %61 = getelementptr inbounds nuw %struct.H5FD_get_driver_ud_t, ptr %5, i32 0, i32 0
  %62 = getelementptr inbounds nuw %struct.H5PL_vfd_key_t, ptr %61, i32 0, i32 0
  store i32 1, ptr %62, align 8, !tbaa !108
  %63 = load i32, ptr %3, align 4, !tbaa !12
  %64 = getelementptr inbounds nuw %struct.H5FD_get_driver_ud_t, ptr %5, i32 0, i32 0
  %65 = getelementptr inbounds nuw %struct.H5PL_vfd_key_t, ptr %64, i32 0, i32 1
  store i32 %63, ptr %65, align 8, !tbaa !88
  %66 = getelementptr inbounds nuw %struct.H5FD_get_driver_ud_t, ptr %5, i32 0, i32 1
  store i64 -1, ptr %66, align 8, !tbaa !111
  %67 = call i32 @H5I_iterate(i32 noundef 8, ptr noundef @H5FD__get_driver_cb, ptr noundef %5, i1 noundef zeroext false)
  %68 = icmp slt i32 %67, 0
  br i1 %68, label %69, label %88

69:                                               ; preds = %60
  br label %70

70:                                               ; preds = %69
  br label %71

71:                                               ; preds = %70
  br label %72

72:                                               ; preds = %71
  %73 = load i64, ptr @H5E_VFL_g, align 8, !tbaa !10
  %74 = load i64, ptr @H5E_BADITER_g, align 8, !tbaa !10
  %75 = call i32 (ptr, ptr, i32, i64, i64, ptr, ...) @H5E_printf_stack(ptr noundef @.str, ptr noundef @__func__.H5FD_is_driver_registered_by_value, i32 noundef 3340, i64 noundef %73, i64 noundef %74, ptr noundef @.str.43)
  br label %76

76:                                               ; preds = %72
  br label %77

77:                                               ; preds = %76
  store i8 1, ptr %7, align 1, !tbaa !14
  %78 = load i8, ptr %7, align 1, !tbaa !14, !range !16, !noundef !17
  %79 = trunc i8 %78 to i1
  %80 = zext i1 %79 to i8
  store i8 %80, ptr %7, align 1, !tbaa !14
  br label %81

81:                                               ; preds = %77
  br label %82

82:                                               ; preds = %81
  br label %83

83:                                               ; preds = %82
  store i32 -1, ptr %6, align 4, !tbaa !12
  br label %101

84:                                               ; No predecessors!
  br label %85

85:                                               ; preds = %84
  br label %86

86:                                               ; preds = %85
  br label %87

87:                                               ; preds = %86
  br label %88

88:                                               ; preds = %87, %60
  %89 = getelementptr inbounds nuw %struct.H5FD_get_driver_ud_t, ptr %5, i32 0, i32 1
  %90 = load i64, ptr %89, align 8, !tbaa !111
  %91 = icmp ne i64 %90, -1
  br i1 %91, label %92, label %100

92:                                               ; preds = %88
  %93 = load ptr, ptr %4, align 8, !tbaa !8
  %94 = icmp ne ptr %93, null
  br i1 %94, label %95, label %99

95:                                               ; preds = %92
  %96 = getelementptr inbounds nuw %struct.H5FD_get_driver_ud_t, ptr %5, i32 0, i32 1
  %97 = load i64, ptr %96, align 8, !tbaa !111
  %98 = load ptr, ptr %4, align 8, !tbaa !8
  store i64 %97, ptr %98, align 8, !tbaa !10
  br label %99

99:                                               ; preds = %95, %92
  store i32 1, ptr %6, align 4, !tbaa !12
  br label %100

100:                                              ; preds = %99, %88
  br label %101

101:                                              ; preds = %100, %83, %39
  br label %102

102:                                              ; preds = %101, %52
  %103 = load i32, ptr %6, align 4, !tbaa !12
  call void @llvm.lifetime.end.p0(i64 1, ptr %7) #8
  call void @llvm.lifetime.end.p0(i64 4, ptr %6) #8
  call void @llvm.lifetime.end.p0(i64 24, ptr %5) #8
  ret i32 %103
}